; ModuleID = 'source-C-CXX/12/1999.c'
source_filename = "source-C-CXX/12/1999.c"
target datalayout = "e-m:e-p270:32:32-p271:32:32-p272:64:64-i64:64-f80:128-n8:16:32:64-S128"
target triple = "x86_64-pc-linux-gnu"

@.str = private unnamed_addr constant [5 x i8] c"%d%d\00", align 1
@.str.1 = private unnamed_addr constant [3 x i8] c"%d\00", align 1
@.str.2 = private unnamed_addr constant [4 x i8] c" %d\00", align 1

; Function Attrs: nofree nounwind sspstrong uwtable
define dso_local i32 @main() local_unnamed_addr #0 {
  %1 = alloca i32, align 4
  %2 = alloca [20000 x i32], align 16
  %3 = bitcast i32* %1 to i8*
  call void @llvm.lifetime.start.p0i8(i64 4, i8* nonnull %3) #3
  %4 = bitcast [20000 x i32]* %2 to i8*
  call void @llvm.lifetime.start.p0i8(i64 80000, i8* nonnull %4) #3
  %5 = getelementptr inbounds [20000 x i32], [20000 x i32]* %2, i64 0, i64 0
  %6 = call i32 (i8*, ...) @__isoc99_scanf(i8* getelementptr inbounds ([5 x i8], [5 x i8]* @.str, i64 0, i64 0), i32* nonnull %1, i32* nonnull %5)
  %7 = load i32, i32* %5, align 16, !tbaa !5
  %8 = call i32 (i8*, ...) @printf(i8* nonnull dereferenceable(1) getelementptr inbounds ([3 x i8], [3 x i8]* @.str.1, i64 0, i64 0), i32 %7)
  %9 = load i32, i32* %1, align 4, !tbaa !5
  %10 = icmp sgt i32 %9, 1
  br i1 %10, label %11, label %75

11:                                               ; preds = %0, %69
  %12 = phi i64 [ %74, %69 ], [ 0, %0 ]
  %13 = phi i64 [ %70, %69 ], [ 1, %0 ]
  %14 = add i64 %12, 1
  %15 = getelementptr inbounds [20000 x i32], [20000 x i32]* %2, i64 0, i64 %13
  %16 = call i32 (i8*, ...) @__isoc99_scanf(i8* getelementptr inbounds ([3 x i8], [3 x i8]* @.str.1, i64 0, i64 0), i32* nonnull %15)
  %17 = load i32, i32* %15, align 4, !tbaa !5
  %18 = and i64 %14, 3
  %19 = icmp ult i64 %12, 3
  br i1 %19, label %48, label %20

20:                                               ; preds = %11
  %21 = and i64 %14, -4
  br label %22

22:                                               ; preds = %22, %20
  %23 = phi i64 [ 0, %20 ], [ %45, %22 ]
  %24 = phi i32 [ 0, %20 ], [ %44, %22 ]
  %25 = phi i64 [ %21, %20 ], [ %46, %22 ]
  %26 = getelementptr inbounds [20000 x i32], [20000 x i32]* %2, i64 0, i64 %23
  %27 = load i32, i32* %26, align 16, !tbaa !5
  %28 = icmp eq i32 %17, %27
  %29 = or i64 %23, 1
  %30 = getelementptr inbounds [20000 x i32], [20000 x i32]* %2, i64 0, i64 %29
  %31 = load i32, i32* %30, align 4, !tbaa !5
  %32 = icmp eq i32 %17, %31
  %33 = or i64 %23, 2
  %34 = getelementptr inbounds [20000 x i32], [20000 x i32]* %2, i64 0, i64 %33
  %35 = load i32, i32* %34, align 8, !tbaa !5
  %36 = icmp eq i32 %17, %35
  %37 = or i64 %23, 3
  %38 = getelementptr inbounds [20000 x i32], [20000 x i32]* %2, i64 0, i64 %37
  %39 = load i32, i32* %38, align 4, !tbaa !5
  %40 = icmp eq i32 %17, %39
  %41 = select i1 %40, i1 true, i1 %36
  %42 = select i1 %41, i1 true, i1 %32
  %43 = select i1 %42, i1 true, i1 %28
  %44 = select i1 %43, i32 1, i32 %24
  %45 = add nuw nsw i64 %23, 4
  %46 = add i64 %25, -4
  %47 = icmp eq i64 %46, 0
  br i1 %47, label %48, label %22, !llvm.loop !9

48:                                               ; preds = %22, %11
  %49 = phi i32 [ undef, %11 ], [ %44, %22 ]
  %50 = phi i64 [ 0, %11 ], [ %45, %22 ]
  %51 = phi i32 [ 0, %11 ], [ %44, %22 ]
  %52 = icmp eq i64 %18, 0
  br i1 %52, label %64, label %53

53:                                               ; preds = %48, %53
  %54 = phi i64 [ %61, %53 ], [ %50, %48 ]
  %55 = phi i32 [ %60, %53 ], [ %51, %48 ]
  %56 = phi i64 [ %62, %53 ], [ %18, %48 ]
  %57 = getelementptr inbounds [20000 x i32], [20000 x i32]* %2, i64 0, i64 %54
  %58 = load i32, i32* %57, align 4, !tbaa !5
  %59 = icmp eq i32 %17, %58
  %60 = select i1 %59, i32 1, i32 %55
  %61 = add nuw nsw i64 %54, 1
  %62 = add i64 %56, -1
  %63 = icmp eq i64 %62, 0
  br i1 %63, label %64, label %53, !llvm.loop !11

64:                                               ; preds = %53, %48
  %65 = phi i32 [ %49, %48 ], [ %60, %53 ]
  %66 = icmp eq i32 %65, 0
  br i1 %66, label %67, label %69

67:                                               ; preds = %64
  %68 = call i32 (i8*, ...) @printf(i8* nonnull dereferenceable(1) getelementptr inbounds ([4 x i8], [4 x i8]* @.str.2, i64 0, i64 0), i32 %17)
  br label %69

69:                                               ; preds = %64, %67
  %70 = add nuw nsw i64 %13, 1
  %71 = load i32, i32* %1, align 4, !tbaa !5
  %72 = sext i32 %71 to i64
  %73 = icmp slt i64 %70, %72
  %74 = add i64 %12, 1
  br i1 %73, label %11, label %75, !llvm.loop !13

75:                                               ; preds = %69, %0
  call void @llvm.lifetime.end.p0i8(i64 80000, i8* nonnull %4) #3
  call void @llvm.lifetime.end.p0i8(i64 4, i8* nonnull %3) #3
  ret i32 0
}

; Function Attrs: argmemonly mustprogress nofree nosync nounwind willreturn
declare void @llvm.lifetime.start.p0i8(i64 immarg, i8* nocapture) #1

; Function Attrs: nofree nounwind
declare noundef i32 @__isoc99_scanf(i8* nocapture noundef readonly, ...) local_unnamed_addr #2

; Function Attrs: nofree nounwind
declare noundef i32 @printf(i8* nocapture noundef readonly, ...) local_unnamed_addr #2

; Function Attrs: argmemonly mustprogress nofree nosync nounwind willreturn
declare void @llvm.lifetime.end.p0i8(i64 immarg, i8* nocapture) #1


!llvm.module.flags = !{!0, !1, !2, !3}
!llvm.ident = !{!4}

!0 = !{i32 1, !"wchar_size", i32 4}
!1 = !{i32 7, !"PIC Level", i32 2}
!2 = !{i32 7, !"PIE Level", i32 2}
!3 = !{i32 7, !"uwtable", i32 1}
!4 = !{!"clang version 13.0.0"}
!5 = !{!6, !6, i64 0}
!6 = !{!"int", !7, i64 0}
!7 = !{!"omnipotent char", !8, i64 0}
!8 = !{!"Simple C/C++ TBAA"}
!9 = distinct !{!9, !10}
!10 = !{!"llvm.loop.mustprogress"}
!11 = distinct !{!11, !12}
!12 = !{!"llvm.loop.unroll.disable"}
!13 = distinct !{!13, !10}
